target datalayout = "e-m:e-p270:32:32-p271:32:32-p272:64:64-i64:64-i128:128-f80:128-n8:16:32:64-S128"
target triple = "x86_64-pc-linux-gnu"

%struct.FormData_pg_amop = type { i32, i32, i32, i32, i16, i8, i32, i32, i32 }
%struct.HeapTupleData = type { i32, %struct.ItemPointerData, i32, ptr }
%struct.ItemPointerData = type { %struct.BlockIdData, i16 }
%struct.BlockIdData = type { i16, i16 }
%struct.HeapTupleHeaderData = type { %union.anon, %struct.ItemPointerData, i16, i16, i8, [0 x i8] }
%union.anon = type { %struct.HeapTupleFields }
%struct.HeapTupleFields = type { i32, i32, %union.anon.0 }
%union.anon.0 = type { i32 }
%struct.catclist = type { i32, i32, %struct.dlist_node, [4 x i64], i32, i8, i8, i16, i32, ptr, [0 x ptr] }
%struct.dlist_node = type { ptr, ptr }
%struct.catctup = type { i32, i32, [4 x i64], %struct.dlist_node, i32, i8, i8, %struct.HeapTupleData, ptr, ptr }

; Function Attrs: inlinehint nounwind uwtable
define internal ptr @GETSTRUCT(ptr noundef %0) #2 {
  %2 = alloca ptr, align 8
  store ptr %0, ptr %2, align 8
  %3 = load ptr, ptr %2, align 8
  %4 = getelementptr inbounds nuw %struct.HeapTupleData, ptr %3, i32 0, i32 3
  %5 = load ptr, ptr %4, align 8
  %6 = load ptr, ptr %2, align 8
  %7 = getelementptr inbounds nuw %struct.HeapTupleData, ptr %6, i32 0, i32 3
  %8 = load ptr, ptr %7, align 8
  %9 = getelementptr inbounds nuw %struct.HeapTupleHeaderData, ptr %8, i32 0, i32 4
  %10 = load i8, ptr %9, align 2
  %11 = zext i8 %10 to i32
  %12 = sext i32 %11 to i64
  %13 = getelementptr inbounds i8, ptr %5, i64 %12
  ret ptr %13
}

; Function Attrs: inlinehint nounwind uwtable
define internal i64 @ObjectIdGetDatum(i32 noundef %0) #2 {
  %2 = alloca i32, align 4
  store i32 %0, ptr %2, align 4
  %3 = load i32, ptr %2, align 4
  %4 = zext i32 %3 to i64
  ret i64 %4
}

; Function Attrs: nounwind uwtable
define dso_local zeroext i1 @get_ordering_op_properties(i32 noundef %0, ptr noundef %1, ptr noundef %2, ptr noundef %3) #0 {
  %5 = alloca i32, align 4
  %6 = alloca ptr, align 8
  %7 = alloca ptr, align 8
  %8 = alloca ptr, align 8
  %9 = alloca i8, align 1
  %10 = alloca ptr, align 8
  %11 = alloca i32, align 4
  %12 = alloca ptr, align 8
  %13 = alloca ptr, align 8
  %14 = alloca i32, align 4
  store i32 %0, ptr %5, align 4
  store ptr %1, ptr %6, align 8
  store ptr %2, ptr %7, align 8
  store ptr %3, ptr %8, align 8
  call void @llvm.lifetime.start.p0(i64 1, ptr %9) #7
  store i8 0, ptr %9, align 1
  call void @llvm.lifetime.start.p0(i64 8, ptr %10) #7
  call void @llvm.lifetime.start.p0(i64 4, ptr %11) #7
  %15 = load ptr, ptr %6, align 8
  store i32 0, ptr %15, align 4
  %16 = load ptr, ptr %7, align 8
  store i32 0, ptr %16, align 4
  %17 = load ptr, ptr %8, align 8
  store i16 0, ptr %17, align 2
  %18 = load i32, ptr %5, align 4
  %19 = call i64 @ObjectIdGetDatum(i32 noundef %18)
  %20 = call ptr @SearchSysCacheList(i32 noundef 3, i32 noundef 1, i64 noundef %19, i64 noundef 0, i64 noundef 0)
  store ptr %20, ptr %10, align 8
  store i32 0, ptr %11, align 4
  br label %21

21:                                               ; preds = %80, %4
  %22 = load i32, ptr %11, align 4
  %23 = load ptr, ptr %10, align 8
  %24 = getelementptr inbounds nuw %struct.catclist, ptr %23, i32 0, i32 8
  %25 = load i32, ptr %24, align 8
  %26 = icmp slt i32 %22, %25
  br i1 %26, label %27, label %83

27:                                               ; preds = %21
  call void @llvm.lifetime.start.p0(i64 8, ptr %12) #7
  %28 = load ptr, ptr %10, align 8
  %29 = getelementptr inbounds nuw %struct.catclist, ptr %28, i32 0, i32 10
  %30 = load i32, ptr %11, align 4
  %31 = sext i32 %30 to i64
  %32 = getelementptr inbounds [0 x ptr], ptr %29, i64 0, i64 %31
  %33 = load ptr, ptr %32, align 8
  %34 = getelementptr inbounds nuw %struct.catctup, ptr %33, i32 0, i32 7
  store ptr %34, ptr %12, align 8
  call void @llvm.lifetime.start.p0(i64 8, ptr %13) #7
  %35 = load ptr, ptr %12, align 8
  %36 = call ptr @GETSTRUCT(ptr noundef %35)
  store ptr %36, ptr %13, align 8
  %37 = load ptr, ptr %13, align 8
  %38 = getelementptr inbounds nuw %struct.FormData_pg_amop, ptr %37, i32 0, i32 7
  %39 = load i32, ptr %38, align 4
  %40 = icmp ne i32 %39, 403
  br i1 %40, label %41, label %42

41:                                               ; preds = %27
  store i32 4, ptr %14, align 4
  br label %77

42:                                               ; preds = %27
  %43 = load ptr, ptr %13, align 8
  %44 = getelementptr inbounds nuw %struct.FormData_pg_amop, ptr %43, i32 0, i32 4
  %45 = load i16, ptr %44, align 4
  %46 = sext i16 %45 to i32
  %47 = icmp eq i32 %46, 1
  br i1 %47, label %54, label %48

48:                                               ; preds = %42
  %49 = load ptr, ptr %13, align 8
  %50 = getelementptr inbounds nuw %struct.FormData_pg_amop, ptr %49, i32 0, i32 4
  %51 = load i16, ptr %50, align 4
  %52 = sext i16 %51 to i32
  %53 = icmp eq i32 %52, 5
  br i1 %53, label %54, label %76

54:                                               ; preds = %48, %42
  %55 = load ptr, ptr %13, align 8
  %56 = getelementptr inbounds nuw %struct.FormData_pg_amop, ptr %55, i32 0, i32 2
  %57 = load i32, ptr %56, align 4
  %58 = load ptr, ptr %13, align 8
  %59 = getelementptr inbounds nuw %struct.FormData_pg_amop, ptr %58, i32 0, i32 3
  %60 = load i32, ptr %59, align 4
  %61 = icmp eq i32 %57, %60
  br i1 %61, label %62, label %75

62:                                               ; preds = %54
  %63 = load ptr, ptr %13, align 8
  %64 = getelementptr inbounds nuw %struct.FormData_pg_amop, ptr %63, i32 0, i32 1
  %65 = load i32, ptr %64, align 4
  %66 = load ptr, ptr %6, align 8
  store i32 %65, ptr %66, align 4
  %67 = load ptr, ptr %13, align 8
  %68 = getelementptr inbounds nuw %struct.FormData_pg_amop, ptr %67, i32 0, i32 2
  %69 = load i32, ptr %68, align 4
  %70 = load ptr, ptr %7, align 8
  store i32 %69, ptr %70, align 4
  %71 = load ptr, ptr %13, align 8
  %72 = getelementptr inbounds nuw %struct.FormData_pg_amop, ptr %71, i32 0, i32 4
  %73 = load i16, ptr %72, align 4
  %74 = load ptr, ptr %8, align 8
  store i16 %73, ptr %74, align 2
  store i8 1, ptr %9, align 1
  store i32 2, ptr %14, align 4
  br label %77

75:                                               ; preds = %54
  br label %76

76:                                               ; preds = %75, %48
  store i32 0, ptr %14, align 4
  br label %77

77:                                               ; preds = %76, %62, %41
  call void @llvm.lifetime.end.p0(i64 8, ptr %13) #7
  call void @llvm.lifetime.end.p0(i64 8, ptr %12) #7
  %78 = load i32, ptr %14, align 4
  switch i32 %78, label %87 [
    i32 0, label %79
    i32 4, label %80
    i32 2, label %83
  ]

79:                                               ; preds = %77
  br label %80

80:                                               ; preds = %79, %77
  %81 = load i32, ptr %11, align 4
  %82 = add i32 %81, 1
  store i32 %82, ptr %11, align 4
  br label %21, !llvm.loop !6

83:                                               ; preds = %77, %21
  %84 = load ptr, ptr %10, align 8
  call void @ReleaseCatCacheList(ptr noundef %84)
  %85 = load i8, ptr %9, align 1, !range !4, !noundef !5
  %86 = trunc i8 %85 to i1
  store i32 1, ptr %14, align 4
  call void @llvm.lifetime.end.p0(i64 4, ptr %11) #7
  call void @llvm.lifetime.end.p0(i64 8, ptr %10) #7
  call void @llvm.lifetime.end.p0(i64 1, ptr %9) #7
  ret i1 %86

87:                                               ; preds = %77
  unreachable
}