; Function Attrs: nounwind uwtable
define dso_local noundef zeroext i1 @get_ordering_op_properties(i32 noundef %0, ptr noundef writeonly captures(none) initializes((0, 4)) %1, ptr noundef writeonly captures(none) initializes((0, 4)) %2, ptr noundef writeonly captures(none) initializes((0, 2)) %3) local_unnamed_addr #0 {
  store i32 0, ptr %1, align 4
  store i32 0, ptr %2, align 4
  store i16 0, ptr %3, align 2
  %5 = zext i32 %0 to i64
  %6 = tail call ptr @SearchSysCacheList(i32 noundef 3, i32 noundef 1, i64 noundef %5, i64 noundef 0, i64 noundef 0) #8
  %7 = getelementptr inbounds nuw i8, ptr %6, i64 64
  %8 = load i32, ptr %7, align 8
  %9 = icmp sgt i32 %8, 0
  br i1 %9, label %.lr.ph, label %.loopexit

.lr.ph:                                           ; preds = %4
  %10 = getelementptr inbounds nuw i8, ptr %6, i64 80
  %wide.trip.count = zext nneg i32 %8 to i64
  br label %11

11:                                               ; preds = %.lr.ph, %37
  %indvars.iv = phi i64 [ 0, %.lr.ph ], [ %indvars.iv.next, %37 ]
  %12 = getelementptr inbounds nuw [0 x ptr], ptr %10, i64 0, i64 %indvars.iv
  %13 = load ptr, ptr %12, align 8
  %14 = getelementptr i8, ptr %13, i64 80
  %.val = load ptr, ptr %14, align 8
  %15 = getelementptr inbounds nuw i8, ptr %.val, i64 22
  %16 = load i8, ptr %15, align 2
  %17 = zext i8 %16 to i64
  %18 = getelementptr inbounds nuw i8, ptr %.val, i64 %17
  %19 = getelementptr inbounds nuw i8, ptr %18, i64 24
  %20 = load i32, ptr %19, align 4
  %.not = icmp eq i32 %20, 403
  br i1 %.not, label %21, label %37

21:                                               ; preds = %11
  %22 = getelementptr inbounds nuw i8, ptr %18, i64 16
  %23 = load i16, ptr %22, align 4
  switch i16 %23, label %37 [
    i16 1, label %24
    i16 5, label %24
  ]

24:                                               ; preds = %21, %21
  %25 = getelementptr inbounds nuw i8, ptr %18, i64 8
  %26 = load i32, ptr %25, align 4
  %27 = getelementptr inbounds nuw i8, ptr %18, i64 12
  %28 = load i32, ptr %27, align 4
  %29 = icmp eq i32 %26, %28
  br i1 %29, label %30, label %37

30:                                               ; preds = %24
  %31 = getelementptr inbounds nuw i8, ptr %18, i64 16
  %32 = getelementptr inbounds nuw i8, ptr %18, i64 8
  %33 = getelementptr inbounds nuw i8, ptr %18, i64 4
  %34 = load i32, ptr %33, align 4
  store i32 %34, ptr %1, align 4
  %35 = load i32, ptr %32, align 4
  store i32 %35, ptr %2, align 4
  %36 = load i16, ptr %31, align 4
  store i16 %36, ptr %3, align 2
  br label %.loopexit

37:                                               ; preds = %11, %21, %24
  %indvars.iv.next = add nuw nsw i64 %indvars.iv, 1
  %exitcond.not = icmp eq i64 %indvars.iv.next, %wide.trip.count
  br i1 %exitcond.not, label %.loopexit, label %11, !llvm.loop !4

.loopexit:                                        ; preds = %37, %4, %30
  %38 = phi i1 [ true, %30 ], [ false, %4 ], [ false, %37 ]
  tail call void @ReleaseCatCacheList(ptr noundef nonnull %6) #8
  ret i1 %38
}